target datalayout = "e-m:e-p270:32:32-p271:32:32-p272:64:64-i64:64-i128:128-f80:128-n8:16:32:64-S128"
target triple = "x86_64-pc-linux-gnu"

%struct.radix_process_st = type { i64, i64, i64, ptr, ptr, ptr, %struct.OSSL_TIME, ptr, i32, i32 }
%struct.OSSL_TIME = type { i64 }

@radix_process = internal global %struct.radix_process_st zeroinitializer, align 8
@.str.62 = private unnamed_addr constant [3 x i8] c"%s\00", align 1

; Function Attrs: nounwind uwtable
define internal void @keylog_cb(ptr noundef %0, ptr noundef %1) #0 {
  %3 = alloca ptr, align 8
  %4 = alloca ptr, align 8
  store ptr %0, ptr %3, align 8, !tbaa !49
  store ptr %1, ptr %4, align 8, !tbaa !4
  %5 = load ptr, ptr getelementptr inbounds nuw (%struct.radix_process_st, ptr @radix_process, i32 0, i32 4), align 8, !tbaa !64
  call void @ossl_crypto_mutex_lock(ptr noundef %5)
  %6 = load ptr, ptr getelementptr inbounds nuw (%struct.radix_process_st, ptr @radix_process, i32 0, i32 7), align 8, !tbaa !76
  %7 = load ptr, ptr %4, align 8, !tbaa !4
  %8 = call i32 (ptr, ptr, ...) @BIO_printf(ptr noundef %6, ptr noundef @.str.62, ptr noundef %7)
  %9 = load ptr, ptr getelementptr inbounds nuw (%struct.radix_process_st, ptr @radix_process, i32 0, i32 7), align 8, !tbaa !76
  %10 = call i64 @BIO_ctrl(ptr noundef %9, i32 noundef 11, i64 noundef 0, ptr noundef null)
  %11 = load ptr, ptr getelementptr inbounds nuw (%struct.radix_process_st, ptr @radix_process, i32 0, i32 4), align 8, !tbaa !64
  call void @ossl_crypto_mutex_unlock(ptr noundef %11)
  ret void
}