; Function Attrs: nounwind uwtable
define internal void @keylog_cb(ptr readnone captures(none) %0, ptr noundef %1) #1 {
  %3 = load ptr, ptr getelementptr inbounds nuw (i8, ptr @radix_process, i64 32), align 8, !tbaa !9
  tail call void @ossl_crypto_mutex_lock(ptr noundef %3) #12
  %4 = load ptr, ptr getelementptr inbounds nuw (i8, ptr @radix_process, i64 56), align 8, !tbaa !20
  %5 = tail call i32 (ptr, ptr, ...) @BIO_printf(ptr noundef %4, ptr noundef nonnull @.str.62, ptr noundef %1) #12
  %6 = load ptr, ptr getelementptr inbounds nuw (i8, ptr @radix_process, i64 56), align 8, !tbaa !20
  %7 = tail call i64 @BIO_ctrl(ptr noundef %6, i32 noundef 11, i64 noundef 0, ptr noundef null) #12
  %8 = load ptr, ptr getelementptr inbounds nuw (i8, ptr @radix_process, i64 32), align 8, !tbaa !9
  tail call void @ossl_crypto_mutex_unlock(ptr noundef %8) #12
  ret void
}